; Function Attrs: nounwind uwtable
define void @duckdb_je_psset_remove(ptr noundef %0, ptr noundef initializes((36, 37)) %1) local_unnamed_addr #0 {
  %3 = getelementptr inbounds nuw i8, ptr %1, i64 36
  store i8 0, ptr %3, align 4, !tbaa !43
  tail call fastcc void @psset_stats_remove(ptr noundef %0, ptr noundef %1)
  %4 = getelementptr i8, ptr %1, i64 18
  %.val = load i8, ptr %4, align 2, !tbaa !17, !range !18, !noundef !19
  %5 = trunc nuw i8 %.val to i1
  br i1 %5, label %6, label %7

6:                                                ; preds = %2
  tail call fastcc void @psset_alloc_container_remove(ptr noundef %0, ptr noundef nonnull %1)
  br label %7

7:                                                ; preds = %6, %2
  tail call fastcc void @psset_maybe_remove_purge_list(ptr noundef %0, ptr noundef nonnull %1)
  %8 = getelementptr i8, ptr %1, i64 32
  %.val12 = load i8, ptr %8, align 8, !tbaa !40, !range !18, !noundef !19
  %9 = trunc nuw i8 %.val12 to i1
  br i1 %9, label %10, label %hpdata_hugify_list_remove.exit

10:                                               ; preds = %7
  store i8 0, ptr %8, align 8, !tbaa !40
  %11 = getelementptr inbounds nuw i8, ptr %0, i64 5272
  %12 = load ptr, ptr %11, align 8, !tbaa !32
  %13 = icmp eq ptr %12, %1
  br i1 %13, label %14, label %17

14:                                               ; preds = %10
  %15 = getelementptr inbounds nuw i8, ptr %12, i64 80
  %16 = load ptr, ptr %15, align 8, !tbaa !41
  store ptr %16, ptr %11, align 8, !tbaa !32
  br label %17

17:                                               ; preds = %14, %10
  %18 = phi ptr [ %16, %14 ], [ %12, %10 ]
  %.not.i = icmp eq ptr %18, %1
  br i1 %.not.i, label %32, label %19

19:                                               ; preds = %17
  %20 = getelementptr inbounds nuw i8, ptr %1, i64 80
  %21 = load ptr, ptr %20, align 8, !tbaa !41
  %22 = getelementptr inbounds nuw i8, ptr %21, i64 88
  %23 = load ptr, ptr %22, align 8, !tbaa !42
  %24 = getelementptr inbounds nuw i8, ptr %1, i64 88
  %25 = load ptr, ptr %24, align 8, !tbaa !42
  %26 = getelementptr inbounds nuw i8, ptr %25, i64 80
  store ptr %23, ptr %26, align 8, !tbaa !41
  %27 = load ptr, ptr %20, align 8, !tbaa !41
  %28 = getelementptr inbounds nuw i8, ptr %27, i64 88
  store ptr %25, ptr %28, align 8, !tbaa !42
  store ptr %23, ptr %24, align 8, !tbaa !42
  %29 = load ptr, ptr %28, align 8, !tbaa !42
  %30 = getelementptr inbounds nuw i8, ptr %29, i64 80
  store ptr %27, ptr %30, align 8, !tbaa !41
  %31 = getelementptr inbounds nuw i8, ptr %23, i64 80
  store ptr %1, ptr %31, align 8, !tbaa !41
  br label %hpdata_hugify_list_remove.exit

32:                                               ; preds = %17
  store ptr null, ptr %11, align 8, !tbaa !32
  br label %hpdata_hugify_list_remove.exit

hpdata_hugify_list_remove.exit:                   ; preds = %32, %19, %7
  ret void
}